; Function Attrs: mustprogress uwtable
define dso_local noundef zeroext i1 @_ZN4Json5Value6insertEjRKS0_(ptr nocapture noundef nonnull align 8 dereferenceable(40) %0, i32 noundef %1, ptr nocapture noundef nonnull readonly align 8 dereferenceable(40) %2) local_unnamed_addr #10 align 2 personality ptr @__gxx_personality_v0 {
  %4 = alloca %"class.Json::Value", align 8
  %5 = getelementptr inbounds i8, ptr %4, i64 16
  store ptr null, ptr %5, align 8
  invoke void @_ZN4Json5Value10dupPayloadERKS0_(ptr noundef nonnull align 8 dereferenceable(40) %4, ptr noundef nonnull align 8 dereferenceable(40) %2)
          to label %6 unwind label %9

6:                                                ; preds = %3
  %7 = getelementptr inbounds i8, ptr %2, i64 16
  %8 = invoke noundef nonnull align 8 dereferenceable(8) ptr @_ZN4Json5Value8CommentsaSERKS1_(ptr noundef nonnull align 8 dereferenceable(8) %5, ptr noundef nonnull align 8 dereferenceable(8) %7)
          to label %_ZN4Json5ValueC2ERKS0_.exit unwind label %9

common.resume:                                    ; preds = %16, %9
  %common.resume.op = phi { ptr, i32 } [ %10, %9 ], [ %17, %16 ]
  resume { ptr, i32 } %common.resume.op

9:                                                ; preds = %6, %3
  %10 = landingpad { ptr, i32 }
          cleanup
  call void @_ZN4Json5Value8CommentsD2Ev(ptr noundef nonnull align 8 dereferenceable(8) %5) #35
  br label %common.resume

_ZN4Json5ValueC2ERKS0_.exit:                      ; preds = %6
  %11 = getelementptr inbounds i8, ptr %2, i64 24
  %12 = getelementptr inbounds i8, ptr %4, i64 24
  %13 = load <2 x i64>, ptr %11, align 8
  store <2 x i64> %13, ptr %12, align 8
  %14 = invoke noundef zeroext i1 @_ZN4Json5Value6insertEjOS0_(ptr noundef nonnull align 8 dereferenceable(40) %0, i32 noundef %1, ptr noundef nonnull align 8 dereferenceable(40) %4)
          to label %15 unwind label %16

15:                                               ; preds = %_ZN4Json5ValueC2ERKS0_.exit
  call void @_ZN4Json5ValueD2Ev(ptr noundef nonnull align 8 dereferenceable(40) %4) #35
  ret i1 %14

16:                                               ; preds = %_ZN4Json5ValueC2ERKS0_.exit
  %17 = landingpad { ptr, i32 }
          cleanup
  call void @_ZN4Json5ValueD2Ev(ptr noundef nonnull align 8 dereferenceable(40) %4) #35
  br label %common.resume
}